target datalayout = "e-m:e-p270:32:32-p271:32:32-p272:64:64-i64:64-i128:128-f80:128-n8:16:32:64-S128"
target triple = "x86_64-pc-linux-gnu"

%struct.Fraig_NodeStruct_t_ = type { i32, i32, i32, i32, i32, i32, i32, ptr, ptr, ptr, ptr, ptr, ptr, ptr, ptr, i32, i32, ptr, ptr, ptr, ptr, ptr, ptr, ptr }

; Function Attrs: nounwind uwtable
define i32 @Fraig_NodeIsMuxType(ptr noundef %0) #0 {
  %2 = alloca i32, align 4
  %3 = alloca ptr, align 8
  %4 = alloca ptr, align 8
  %5 = alloca ptr, align 8
  store ptr %0, ptr %3, align 8
  %6 = load ptr, ptr %3, align 8
  %7 = ptrtoint ptr %6 to i64
  %8 = and i64 %7, -2
  %9 = inttoptr i64 %8 to ptr
  store ptr %9, ptr %3, align 8
  %10 = load ptr, ptr %3, align 8
  %11 = call i32 @Fraig_NodeIsAnd(ptr noundef %10)
  %12 = icmp ne i32 %11, 0
  br i1 %12, label %14, label %13

13:                                               ; preds = %1
  store i32 0, ptr %2, align 4
  br label %126

14:                                               ; preds = %1
  %15 = load ptr, ptr %3, align 8
  %16 = getelementptr inbounds %struct.Fraig_NodeStruct_t_, ptr %15, i32 0, i32 7
  %17 = load ptr, ptr %16, align 8
  %18 = call i32 @Fraig_NodeIsAnd(ptr noundef %17)
  %19 = icmp ne i32 %18, 0
  br i1 %19, label %20, label %28

20:                                               ; preds = %14
  %21 = load ptr, ptr %3, align 8
  %22 = getelementptr inbounds %struct.Fraig_NodeStruct_t_, ptr %21, i32 0, i32 7
  %23 = load ptr, ptr %22, align 8
  %24 = ptrtoint ptr %23 to i64
  %25 = and i64 %24, 1
  %26 = trunc i64 %25 to i32
  %27 = icmp ne i32 %26, 0
  br i1 %27, label %29, label %28

28:                                               ; preds = %20, %14
  store i32 0, ptr %2, align 4
  br label %126

29:                                               ; preds = %20
  %30 = load ptr, ptr %3, align 8
  %31 = getelementptr inbounds %struct.Fraig_NodeStruct_t_, ptr %30, i32 0, i32 8
  %32 = load ptr, ptr %31, align 8
  %33 = call i32 @Fraig_NodeIsAnd(ptr noundef %32)
  %34 = icmp ne i32 %33, 0
  br i1 %34, label %35, label %43

35:                                               ; preds = %29
  %36 = load ptr, ptr %3, align 8
  %37 = getelementptr inbounds %struct.Fraig_NodeStruct_t_, ptr %36, i32 0, i32 8
  %38 = load ptr, ptr %37, align 8
  %39 = ptrtoint ptr %38 to i64
  %40 = and i64 %39, 1
  %41 = trunc i64 %40 to i32
  %42 = icmp ne i32 %41, 0
  br i1 %42, label %44, label %43

43:                                               ; preds = %35, %29
  store i32 0, ptr %2, align 4
  br label %126

44:                                               ; preds = %35
  %45 = load ptr, ptr %3, align 8
  %46 = getelementptr inbounds %struct.Fraig_NodeStruct_t_, ptr %45, i32 0, i32 7
  %47 = load ptr, ptr %46, align 8
  %48 = ptrtoint ptr %47 to i64
  %49 = and i64 %48, -2
  %50 = inttoptr i64 %49 to ptr
  store ptr %50, ptr %4, align 8
  %51 = load ptr, ptr %3, align 8
  %52 = getelementptr inbounds %struct.Fraig_NodeStruct_t_, ptr %51, i32 0, i32 8
  %53 = load ptr, ptr %52, align 8
  %54 = ptrtoint ptr %53 to i64
  %55 = and i64 %54, -2
  %56 = inttoptr i64 %55 to ptr
  store ptr %56, ptr %5, align 8
  %57 = load ptr, ptr %4, align 8
  %58 = getelementptr inbounds %struct.Fraig_NodeStruct_t_, ptr %57, i32 0, i32 7
  %59 = load ptr, ptr %58, align 8
  %60 = load ptr, ptr %5, align 8
  %61 = getelementptr inbounds %struct.Fraig_NodeStruct_t_, ptr %60, i32 0, i32 7
  %62 = load ptr, ptr %61, align 8
  %63 = ptrtoint ptr %62 to i64
  %64 = xor i64 %63, 1
  %65 = inttoptr i64 %64 to ptr
  %66 = icmp eq ptr %59, %65
  br i1 %66, label %67, label %79

67:                                               ; preds = %44
  %68 = load ptr, ptr %4, align 8
  %69 = getelementptr inbounds %struct.Fraig_NodeStruct_t_, ptr %68, i32 0, i32 8
  %70 = load ptr, ptr %69, align 8
  %71 = load ptr, ptr %5, align 8
  %72 = getelementptr inbounds %struct.Fraig_NodeStruct_t_, ptr %71, i32 0, i32 8
  %73 = load ptr, ptr %72, align 8
  %74 = ptrtoint ptr %73 to i64
  %75 = xor i64 %74, 1
  %76 = inttoptr i64 %75 to ptr
  %77 = icmp eq ptr %70, %76
  br i1 %77, label %78, label %79

78:                                               ; preds = %67
  store i32 1, ptr %2, align 4
  br label %126

79:                                               ; preds = %67, %44
  %80 = load ptr, ptr %4, align 8
  %81 = getelementptr inbounds %struct.Fraig_NodeStruct_t_, ptr %80, i32 0, i32 7
  %82 = load ptr, ptr %81, align 8
  %83 = load ptr, ptr %5, align 8
  %84 = getelementptr inbounds %struct.Fraig_NodeStruct_t_, ptr %83, i32 0, i32 7
  %85 = load ptr, ptr %84, align 8
  %86 = ptrtoint ptr %85 to i64
  %87 = xor i64 %86, 1
  %88 = inttoptr i64 %87 to ptr
  %89 = icmp eq ptr %82, %88
  br i1 %89, label %123, label %90

90:                                               ; preds = %79
  %91 = load ptr, ptr %4, align 8
  %92 = getelementptr inbounds %struct.Fraig_NodeStruct_t_, ptr %91, i32 0, i32 7
  %93 = load ptr, ptr %92, align 8
  %94 = load ptr, ptr %5, align 8
  %95 = getelementptr inbounds %struct.Fraig_NodeStruct_t_, ptr %94, i32 0, i32 8
  %96 = load ptr, ptr %95, align 8
  %97 = ptrtoint ptr %96 to i64
  %98 = xor i64 %97, 1
  %99 = inttoptr i64 %98 to ptr
  %100 = icmp eq ptr %93, %99
  br i1 %100, label %123, label %101

101:                                              ; preds = %90
  %102 = load ptr, ptr %4, align 8
  %103 = getelementptr inbounds %struct.Fraig_NodeStruct_t_, ptr %102, i32 0, i32 8
  %104 = load ptr, ptr %103, align 8
  %105 = load ptr, ptr %5, align 8
  %106 = getelementptr inbounds %struct.Fraig_NodeStruct_t_, ptr %105, i32 0, i32 7
  %107 = load ptr, ptr %106, align 8
  %108 = ptrtoint ptr %107 to i64
  %109 = xor i64 %108, 1
  %110 = inttoptr i64 %109 to ptr
  %111 = icmp eq ptr %104, %110
  br i1 %111, label %123, label %112

112:                                              ; preds = %101
  %113 = load ptr, ptr %4, align 8
  %114 = getelementptr inbounds %struct.Fraig_NodeStruct_t_, ptr %113, i32 0, i32 8
  %115 = load ptr, ptr %114, align 8
  %116 = load ptr, ptr %5, align 8
  %117 = getelementptr inbounds %struct.Fraig_NodeStruct_t_, ptr %116, i32 0, i32 8
  %118 = load ptr, ptr %117, align 8
  %119 = ptrtoint ptr %118 to i64
  %120 = xor i64 %119, 1
  %121 = inttoptr i64 %120 to ptr
  %122 = icmp eq ptr %115, %121
  br label %123

123:                                              ; preds = %112, %101, %90, %79
  %124 = phi i1 [ true, %101 ], [ true, %90 ], [ true, %79 ], [ %122, %112 ]
  %125 = zext i1 %124 to i32
  store i32 %125, ptr %2, align 4
  br label %126

126:                                              ; preds = %123, %78, %43, %28, %13
  %127 = load i32, ptr %2, align 4
  ret i32 %127
}

; Function Attrs: nounwind uwtable
define void @Fraig_CollectSupergate_rec(ptr noundef %0, ptr noundef %1, i32 noundef %2, i32 noundef %3) #0 {
  %5 = alloca ptr, align 8
  %6 = alloca ptr, align 8
  %7 = alloca i32, align 4
  %8 = alloca i32, align 4
  store ptr %0, ptr %5, align 8
  store ptr %1, ptr %6, align 8
  store i32 %2, ptr %7, align 4
  store i32 %3, ptr %8, align 4
  %9 = load i32, ptr %7, align 4
  %10 = icmp ne i32 %9, 0
  br i1 %10, label %19, label %11

11:                                               ; preds = %4
  %12 = load ptr, ptr %5, align 8
  %13 = ptrtoint ptr %12 to i64
  %14 = and i64 %13, -2
  %15 = inttoptr i64 %14 to ptr
  %16 = getelementptr inbounds %struct.Fraig_NodeStruct_t_, ptr %15, i32 0, i32 3
  %17 = load i32, ptr %16, align 4
  %18 = icmp sgt i32 %17, 1
  br i1 %18, label %36, label %19

19:                                               ; preds = %11, %4
  %20 = load ptr, ptr %5, align 8
  %21 = ptrtoint ptr %20 to i64
  %22 = and i64 %21, 1
  %23 = trunc i64 %22 to i32
  %24 = icmp ne i32 %23, 0
  br i1 %24, label %36, label %25

25:                                               ; preds = %19
  %26 = load ptr, ptr %5, align 8
  %27 = call i32 @Fraig_NodeIsVar(ptr noundef %26)
  %28 = icmp ne i32 %27, 0
  br i1 %28, label %36, label %29

29:                                               ; preds = %25
  %30 = load i32, ptr %8, align 4
  %31 = icmp ne i32 %30, 0
  br i1 %31, label %32, label %40

32:                                               ; preds = %29
  %33 = load ptr, ptr %5, align 8
  %34 = call i32 @Fraig_NodeIsMuxType(ptr noundef %33)
  %35 = icmp ne i32 %34, 0
  br i1 %35, label %36, label %40

36:                                               ; preds = %32, %25, %19, %11
  %37 = load ptr, ptr %6, align 8
  %38 = load ptr, ptr %5, align 8
  %39 = call i32 @Fraig_NodeVecPushUnique(ptr noundef %37, ptr noundef %38)
  br label %51

40:                                               ; preds = %32, %29
  %41 = load ptr, ptr %5, align 8
  %42 = getelementptr inbounds %struct.Fraig_NodeStruct_t_, ptr %41, i32 0, i32 7
  %43 = load ptr, ptr %42, align 8
  %44 = load ptr, ptr %6, align 8
  %45 = load i32, ptr %8, align 4
  call void @Fraig_CollectSupergate_rec(ptr noundef %43, ptr noundef %44, i32 noundef 0, i32 noundef %45)
  %46 = load ptr, ptr %5, align 8
  %47 = getelementptr inbounds %struct.Fraig_NodeStruct_t_, ptr %46, i32 0, i32 8
  %48 = load ptr, ptr %47, align 8
  %49 = load ptr, ptr %6, align 8
  %50 = load i32, ptr %8, align 4
  call void @Fraig_CollectSupergate_rec(ptr noundef %48, ptr noundef %49, i32 noundef 0, i32 noundef %50)
  br label %51

51:                                               ; preds = %40, %36
  ret void
}