; Function Attrs: nounwind uwtable
define void @Fraig_CollectSupergate_rec(ptr noundef %0, ptr noundef %1, i32 noundef %2, i32 noundef %3) local_unnamed_addr #0 {
  %.not1635 = icmp eq i32 %3, 0
  %5 = icmp eq i32 %2, 0
  br i1 %.not1635, label %tailrecurse.outer.split.us.us, label %tailrecurse

tailrecurse.outer.split.us.us:                    ; preds = %4, %.split.split.us.us
  %.tr27.ph37.us = phi i1 [ true, %.split.split.us.us ], [ %5, %4 ]
  %.tr.ph36.us = phi ptr [ %20, %.split.split.us.us ], [ %0, %4 ]
  %6 = ptrtoint ptr %.tr.ph36.us to i64
  br i1 %.tr27.ph37.us, label %8, label %7

7:                                                ; preds = %tailrecurse.outer.split.us.us
  %.old18.us.us = and i64 %6, 1
  %.not14.old.us.us = icmp eq i64 %.old18.us.us, 0
  br i1 %.not14.old.us.us, label %15, label %Fraig_NodeIsMuxType.exit.thread22

8:                                                ; preds = %tailrecurse.outer.split.us.us
  %9 = and i64 %6, -2
  %10 = inttoptr i64 %9 to ptr
  %11 = getelementptr inbounds nuw i8, ptr %10, i64 12
  %12 = load i32, ptr %11, align 4
  %13 = icmp slt i32 %12, 2
  %14 = and i64 %6, 1
  %.not14.us.us = icmp eq i64 %14, 0
  %or.cond.us.us = and i1 %.not14.us.us, %13
  br i1 %or.cond.us.us, label %15, label %Fraig_NodeIsMuxType.exit.thread22

15:                                               ; preds = %8, %7
  %16 = tail call i32 @Fraig_NodeIsVar(ptr noundef %.tr.ph36.us) #15
  %.not15.us.us = icmp eq i32 %16, 0
  br i1 %.not15.us.us, label %.split.split.us.us, label %Fraig_NodeIsMuxType.exit.thread22

.split.split.us.us:                               ; preds = %15
  %17 = getelementptr inbounds nuw i8, ptr %.tr.ph36.us, i64 32
  %18 = load ptr, ptr %17, align 8
  tail call void @Fraig_CollectSupergate_rec(ptr noundef %18, ptr noundef %1, i32 noundef 0, i32 noundef 0)
  %19 = getelementptr inbounds nuw i8, ptr %.tr.ph36.us, i64 40
  %20 = load ptr, ptr %19, align 8
  br label %tailrecurse.outer.split.us.us

tailrecurse:                                      ; preds = %4, %.split13
  %.tr = phi ptr [ %82, %.split13 ], [ %0, %4 ]
  %.tr27 = phi i1 [ true, %.split13 ], [ %5, %4 ]
  %21 = ptrtoint ptr %.tr to i64
  br i1 %.tr27, label %22, label %29

22:                                               ; preds = %tailrecurse
  %23 = and i64 %21, -2
  %24 = inttoptr i64 %23 to ptr
  %25 = getelementptr inbounds nuw i8, ptr %24, i64 12
  %26 = load i32, ptr %25, align 4
  %27 = icmp slt i32 %26, 2
  %28 = and i64 %21, 1
  %.not14 = icmp eq i64 %28, 0
  %or.cond = and i1 %.not14, %27
  br i1 %or.cond, label %30, label %Fraig_NodeIsMuxType.exit.thread22

29:                                               ; preds = %tailrecurse
  %.old18 = and i64 %21, 1
  %.not14.old = icmp eq i64 %.old18, 0
  br i1 %.not14.old, label %30, label %Fraig_NodeIsMuxType.exit.thread22

30:                                               ; preds = %22, %29
  %31 = tail call i32 @Fraig_NodeIsVar(ptr noundef %.tr) #15
  %.not15 = icmp eq i32 %31, 0
  br i1 %.not15, label %32, label %Fraig_NodeIsMuxType.exit.thread22

32:                                               ; preds = %30
  %33 = ptrtoint ptr %.tr to i64
  %34 = and i64 %33, -2
  %35 = inttoptr i64 %34 to ptr
  %36 = tail call i32 @Fraig_NodeIsAnd(ptr noundef %35) #15
  %.not.i = icmp eq i32 %36, 0
  br i1 %.not.i, label %.split13, label %37

37:                                               ; preds = %32
  %38 = getelementptr inbounds nuw i8, ptr %35, i64 32
  %39 = load ptr, ptr %38, align 8
  %40 = tail call i32 @Fraig_NodeIsAnd(ptr noundef %39) #15
  %.not24.i = icmp eq i32 %40, 0
  br i1 %.not24.i, label %.split13, label %41

41:                                               ; preds = %37
  %42 = load ptr, ptr %38, align 8
  %43 = ptrtoint ptr %42 to i64
  %44 = and i64 %43, 1
  %.not25.i = icmp eq i64 %44, 0
  br i1 %.not25.i, label %.split13, label %45

45:                                               ; preds = %41
  %46 = getelementptr inbounds nuw i8, ptr %35, i64 40
  %47 = load ptr, ptr %46, align 8
  %48 = tail call i32 @Fraig_NodeIsAnd(ptr noundef %47) #15
  %.not26.i = icmp eq i32 %48, 0
  br i1 %.not26.i, label %.split13, label %49

49:                                               ; preds = %45
  %50 = load ptr, ptr %46, align 8
  %51 = ptrtoint ptr %50 to i64
  %52 = and i64 %51, 1
  %.not27.i = icmp eq i64 %52, 0
  br i1 %.not27.i, label %.split13, label %53

53:                                               ; preds = %49
  %54 = load ptr, ptr %38, align 8
  %55 = ptrtoint ptr %54 to i64
  %56 = and i64 %55, -2
  %57 = inttoptr i64 %56 to ptr
  %58 = and i64 %51, -2
  %59 = inttoptr i64 %58 to ptr
  %60 = getelementptr inbounds nuw i8, ptr %57, i64 32
  %61 = load ptr, ptr %60, align 8
  %62 = getelementptr inbounds nuw i8, ptr %59, i64 32
  %63 = load ptr, ptr %62, align 8
  %64 = ptrtoint ptr %63 to i64
  %65 = xor i64 %64, 1
  %66 = inttoptr i64 %65 to ptr
  %67 = icmp eq ptr %61, %66
  br i1 %67, label %Fraig_NodeIsMuxType.exit.thread22, label %68

68:                                               ; preds = %53
  %69 = getelementptr inbounds nuw i8, ptr %59, i64 40
  %70 = load ptr, ptr %69, align 8
  %71 = ptrtoint ptr %70 to i64
  %72 = xor i64 %71, 1
  %73 = inttoptr i64 %72 to ptr
  %74 = icmp eq ptr %61, %73
  br i1 %74, label %Fraig_NodeIsMuxType.exit.thread22, label %75

75:                                               ; preds = %68
  %76 = getelementptr inbounds nuw i8, ptr %57, i64 40
  %77 = load ptr, ptr %76, align 8
  %78 = icmp eq ptr %77, %66
  %.not25 = icmp eq ptr %77, %73
  %or.cond29 = or i1 %78, %.not25
  br i1 %or.cond29, label %Fraig_NodeIsMuxType.exit.thread22, label %.split13

.split13:                                         ; preds = %75, %45, %49, %37, %41, %32
  %79 = getelementptr inbounds nuw i8, ptr %.tr, i64 32
  %80 = load ptr, ptr %79, align 8
  tail call void @Fraig_CollectSupergate_rec(ptr noundef %80, ptr noundef %1, i32 noundef 0, i32 noundef %3)
  %81 = getelementptr inbounds nuw i8, ptr %.tr, i64 40
  %82 = load ptr, ptr %81, align 8
  br label %tailrecurse

Fraig_NodeIsMuxType.exit.thread22:                ; preds = %22, %29, %30, %75, %68, %53, %15, %8, %7
  %.us-phi = phi ptr [ %.tr.ph36.us, %7 ], [ %.tr.ph36.us, %8 ], [ %.tr.ph36.us, %15 ], [ %.tr, %53 ], [ %.tr, %68 ], [ %.tr, %75 ], [ %.tr, %30 ], [ %.tr, %29 ], [ %.tr, %22 ]
  %83 = tail call i32 @Fraig_NodeVecPushUnique(ptr noundef %1, ptr noundef %.us-phi) #15
  ret void
}